ccopy_reg
_reconstructor
p1
(cvocab2
Vocab
p2
c__builtin__
object
p3
NtRp4
(dp5
S'idx2word'
p6
(dp7
I0
S'<null>'
p8
sI1
S'<start>'
p9
sI2
S'<end>'
p10
sI3
S'<unk>'
p11
sI4
S'yellow'
p12
sI5
S'four'
p13
sI6
S'woods'
p14
sI7
S'hanging'
p15
sI8
S'wooded'
p16
sI9
S'wooden'
p17
sI10
S'cooking'
p18
sI11
S'herd'
p19
sI12
S'kids'
p20
sI13
S'glass'
p21
sI14
S'hot'
p22
sI15
S'types'
p23
sI16
S'wine'
p24
sI17
S'backpack'
p25
sI18
S'silver'
p26
sI19
S'bowls'
p27
sI20
S'shelves'
p28
sI21
S'legs'
p29
sI22
S'tree'
p30
sI23
S'shower'
p31
sI24
S'concrete'
p32
sI25
S'doors'
p33
sI26
S'zebras'
p34
sI27
S'object'
p35
sI28
S'mouth'
p36
sI29
S'busy'
p37
sI30
S'rice'
p38
sI31
S'plate'
p39
sI32
S'lots'
p40
sI33
S'country'
p41
sI34
S'grazing'
p42
sI35
S'child'
p43
sI36
S'player'
p44
sI37
S'things'
p45
sI38
S'skateboards'
p46
sI39
S'hay'
p47
sI40
S'hat'
p48
sI41
S'poses'
p49
sI42
S'steps'
p50
sI43
S'right'
p51
sI44
S'old'
p52
sI45
S'crowd'
p53
sI46
S'people'
p54
sI47
S'for'
p55
sI48
S'bottom'
p56
sI49
S'benches'
p57
sI50
S'inside'
p58
sI51
S'lays'
p59
sI52
S'passenger'
p60
sI53
S'floor'
p61
sI54
S'time'
p62
sI55
S'skate'
p63
sI56
S'skiing'
p64
sI57
S'chair'
p65
sI58
S'bicycles'
p66
sI59
S'subway'
p67
sI60
S'team'
p68
sI61
S'sign'
p69
sI62
S'alone'
p70
sI63
S'along'
p71
sI64
S'passengers'
p72
sI65
S'sky'
p73
sI66
S'working'
p74
sI67
S'elephant'
p75
sI68
S'surfing'
p76
sI69
S'truck'
p77
sI70
S'pulled'
p78
sI71
S'square'
p79
sI72
S'container'
p80
sI73
S'one'
p81
sI74
S'open'
p82
sI75
S'city'
p83
sI76
S'stuffed'
p84
sI77
S'take'
p85
sI78
S'walking'
p86
sI79
S'bright'
p87
sI80
S'going'
p88
sI81
S'suitcases'
p89
sI82
S'where'
p90
sI83
S'surfboards'
p91
sI84
S'screen'
p92
sI85
S'boat'
p93
sI86
S'teddy'
p94
sI87
S'trains'
p95
sI88
S'being'
p96
sI89
S'skies'
p97
sI90
S'skier'
p98
sI91
S'around'
p99
sI92
S'dark'
p100
sI93
S'traffic'
p101
sI94
S'stone'
p102
sI95
S'meal'
p103
sI96
S'image'
p104
sI97
S'her'
p105
sI98
S'with'
p106
sI99
S'dirty'
p107
sI100
S'watches'
p108
sI101
S'an'
p109
sI102
S'as'
p110
sI103
S'at'
p111
sI104
S'walks'
p112
sI105
S'cream'
p113
sI106
S'tricks'
p114
sI107
S'having'
p115
sI108
S'tv'
p116
sI109
S'to'
p117
sI110
S'laying'
p118
sI111
S'large'
p119
sI112
S'sand'
p120
sI113
S'small'
p121
sI114
S'past'
p122
sI115
S'clock'
p123
sI116
S'full'
p124
sI117
S'door'
p125
sI118
S'male'
p126
sI119
S'beautiful'
p127
sI120
S'dress'
p128
sI121
S'huge'
p129
sI122
S'plant'
p130
sI123
S'plane'
p131
sI124
S'waves'
p132
sI125
S'paper'
p133
sI126
S'signs'
p134
sI127
S'smiling'
p135
sI128
S'its'
p136
sI129
S'sauce'
p137
sI130
S'highway'
p138
sI131
S'rack'
p139
sI132
S'number'
p140
sI133
S'jet'
p141
sI134
S'graffiti'
p142
sI135
S'play'
p143
sI136
S'blender'
p144
sI137
S'sunny'
p145
sI138
S'preparing'
p146
sI139
S'set'
p147
sI140
S'see'
p148
sI141
S'church'
p149
sI142
S'hitting'
p150
sI143
S'resting'
p151
sI144
S'fire'
p152
sI145
S'leaning'
p153
sI146
S'person'
p154
sI147
S'couple'
p155
sI148
S'be'
p156
sI149
S'by'
p157
sI150
S'into'
p158
sI151
S'suit'
p159
sI152
S'atop'
p160
sI153
S'line'
p161
sI154
S'up'
p162
sI155
S'train'
p163
sI156
S'fresh'
p164
sI157
S'young'
p165
sI158
S'garden'
p166
sI159
S'race'
p167
sI160
S'video'
p168
sI161
S'bird'
p169
sI162
S'gathered'
p170
sI163
S'standing'
p171
sI164
S'next'
p172
sI165
S'carrying'
p173
sI166
S'baby'
p174
sI167
S'pieces'
p175
sI168
S'animals'
p176
sI169
S'this'
p177
sI170
S'high'
p178
sI171
S'pair'
p179
sI172
S'animal'
p180
sI173
S'ties'
p181
sI174
S'counter'
p182
sI175
S'motorcycle'
p183
sI176
S'dock'
p184
sI177
S'cage'
p185
sI178
S'glasses'
p186
sI179
S'doing'
p187
sI180
S'books'
p188
sI181
S'shorts'
p189
sI182
S'steel'
p190
sI183
S'dishes'
p191
sI184
S'painting'
p192
sI185
S'bikes'
p193
sI186
S'bedroom'
p194
sI187
S'riding'
p195
sI188
S'skateboarding'
p196
sI189
S'wire'
p197
sI190
S'ramp'
p198
sI191
S'runway'
p199
sI192
S'bathtub'
p200
sI193
S'lush'
p201
sI194
S'sits'
p202
sI195
S'ball'
p203
sI196
S'broccoli'
p204
sI197
S'off'
p205
sI198
S'bananas'
p206
sI199
S'clocks'
p207
sI200
S'five'
p208
sI201
S'desk'
p209
sI202
S'chairs'
p210
sI203
S'does'
p211
sI204
S'swimming'
p212
sI205
S'getting'
p213
sI206
S'all'
p214
sI207
S'bike'
p215
sI208
S'blanket'
p216
sI209
S'closeup'
p217
sI210
S'phones'
p218
sI211
S'above'
p219
sI212
S'sinks'
p220
sI213
S'items'
p221
sI214
S'work'
p222
sI215
S'boats'
p223
sI216
S'beach'
p224
sI217
S'pizza'
p225
sI218
S'after'
p226
sI219
S'lap'
p227
sI220
S'green'
p228
sI221
S'office'
p229
sI222
S'them'
p230
sI223
S'scene'
p231
sI224
S'giraffe'
p232
sI225
S'they'
p233
sI226
S'bread'
p234
sI227
S'rocks'
p235
sI228
S'flock'
p236
sI229
S'pots'
p237
sI230
S'another'
p238
sI231
S'neck'
p239
sI232
S'dogs'
p240
sI233
S'seated'
p241
sI234
S'giraffes'
p242
sI235
S'cattle'
p243
sI236
S'away'
p244
sI237
S'drawn'
p245
sI238
S'kitchen'
p246
sI239
S'cow'
p247
sI240
S'has'
p248
sI241
S'air'
p249
sI242
S'plates'
p250
sI243
S'rain'
p251
sI244
S'hand'
p252
sI245
S'the'
p253
sI246
S'photo'
p254
sI247
S'mid'
p255
sI248
S'board'
p256
sI249
S'boxes'
p257
sI250
S'night'
p258
sI251
S'purple'
p259
sI252
S'pose'
p260
sI253
S'post'
p261
sI254
S'way'
p262
sI255
S'snowy'
p263
sI256
S'face'
p264
sI257
S'topped'
p265
sI258
S'holding'
p266
sI259
S'together'
p267
sI260
S'beds'
p268
sI261
S'brown'
p269
sI262
S'kitten'
p270
sI263
S'sidewalk'
p271
sI264
S'uniform'
p272
sI265
S'pillow'
p273
sI266
S'snowboard'
p274
sI267
S'market'
p275
sI268
S'car'
p276
sI269
S'cat'
p277
sI270
S'decker'
p278
sI271
S'can'
p279
sI272
S'grassy'
p280
sI273
S'posing'
p281
sI274
S'vases'
p282
sI275
S'candles'
p283
sI276
S'serving'
p284
sI277
S'displayed'
p285
sI278
S'birds'
p286
sI279
S'window'
p287
sI280
S'half'
p288
sI281
S'not'
p289
sI282
S'monitors'
p290
sI283
S'shown'
p291
sI284
S'space'
p292
sI285
S'looking'
p293
sI286
S'shows'
p294
sI287
S'cars'
p295
sI288
S'cart'
p296
sI289
S'tennis'
p297
sI290
S'sheep'
p298
sI291
S'that'
p299
sI292
S'flowers'
p300
sI293
S'television'
p301
sI294
S'apples'
p302
sI295
S'fruits'
p303
sI296
S'breakfast'
p304
sI297
S'equipment'
p305
sI298
S'professional'
p306
sI299
S'ground'
p307
sI300
S'station'
p308
sI301
S'between'
p309
sI302
S'nearby'
p310
sI303
S'staring'
p311
sI304
S'skiers'
p312
sI305
S'trick'
p313
sI306
S'fruit'
p314
sI307
S'snowboarder'
p315
sI308
S'desktop'
p316
sI309
S'using'
p317
sI310
S'lady'
p318
sI311
S'business'
p319
sI312
S'throw'
p320
sI313
S'area'
p321
sI314
S'cats'
p322
sI315
S'lot'
p323
sI316
S'pitcher'
p324
sI317
S'trying'
p325
sI318
S'cabinets'
p326
sI319
S'polar'
p327
sI320
S'airplanes'
p328
sI321
S'pool'
p329
sI322
S'building'
p330
sI323
S'surrounded'
p331
sI324
S'pointing'
p332
sI325
S'very'
p333
sI326
S'fence'
p334
sI327
S'tracks'
p335
sI328
S'trunk'
p336
sI329
S'colored'
p337
sI330
S'family'
p338
sI331
S'takes'
p339
sI332
S'taken'
p340
sI333
S'bushes'
p341
sI334
S'mounted'
p342
sI335
S'cows'
p343
sI336
S'a'
sI337
S'food'
p344
sI338
S'foot'
p345
sI339
S'stopped'
p346
sI340
S'drink'
p347
sI341
S'base'
p348
sI342
S'doughnuts'
p349
sI343
S'horse'
p350
sI344
S'banana'
p351
sI345
S'grey'
p352
sI346
S'toward'
p353
sI347
S'lit'
p354
sI348
S'towards'
p355
sI349
S'eaten'
p356
sI350
S'clear'
p357
sI351
S'clean'
p358
sI352
S'pretty'
p359
sI353
S'trees'
p360
sI354
S'during'
p361
sI355
S'double'
p362
sI356
S'throwing'
p363
sI357
S'close'
p364
sI358
S'pictures'
p365
sI359
S'both'
p366
sI360
S'empty'
p367
sI361
S'wet'
p368
sI362
S'look'
p369
sI363
S'reads'
p370
sI364
S'ready'
p371
sI365
S'older'
p372
sI366
S'docked'
p373
sI367
S'showing'
p374
sI368
S'game'
p375
sI369
S'sofa'
p376
sI370
S'some'
p377
sI371
S'run'
p378
sI372
S'rug'
p379
sI373
S'computer'
p380
sI374
S'adults'
p381
sI375
S'smiles'
p382
sI376
S'go'
p383
sI377
S'cluttered'
p384
sI378
S'wave'
p385
sI379
S'jump'
p386
sI380
S'plays'
p387
sI381
S'soup'
p388
sI382
S'cell'
p389
sI383
S'poles'
p390
sI384
S'commercial'
p391
sI385
S'pitch'
p392
sI386
S'wii'
p393
sI387
S'camera'
p394
sI388
S'vehicle'
p395
sI389
S'salad'
p396
sI390
S'ride'
p397
sI391
S'donut'
p398
sI392
S'control'
p399
sI393
S'pulling'
p400
sI394
S'including'
p401
sI395
S'catcher'
p402
sI396
S'hands'
p403
sI397
S'front'
p404
sI398
S'crossing'
p405
sI399
S'umbrella'
p406
sI400
S'bears'
p407
sI401
S'photograph'
p408
sI402
S'bed'
p409
sI403
S'carrots'
p410
sI404
S'cellphone'
p411
sI405
S'construction'
p412
sI406
S'parked'
p413
sI407
S'gray'
p414
sI408
S'trucks'
p415
sI409
S'she'
p416
sI410
S'placed'
p417
sI411
S'police'
p418
sI412
S'controller'
p419
sI413
S'surface'
p420
sI414
S'swinging'
p421
sI415
S'reflection'
p422
sI416
S'variety'
p423
sI417
S'well'
p424
sI418
S'intersection'
p425
sI419
S'frisbee'
p426
sI420
S'home'
p427
sI421
S'reaching'
p428
sI422
S'toppings'
p429
sI423
S'eat'
p430
sI424
S'he'
p431
sI425
S'carriage'
p432
sI426
S'piece'
p433
sI427
S'display'
p434
sI428
S'nintendo'
p435
sI429
S'asian'
p436
sI430
S'vase'
p437
sI431
S'clothes'
p438
sI432
S'across'
p439
sI433
S'while'
p440
sI434
S'lights'
p441
sI435
S'men'
p442
sI436
S'dry'
p443
sI437
S'slices'
p444
sI438
S'sliced'
p445
sI439
S'adult'
p446
sI440
S'room'
p447
sI441
S'roof'
p448
sI442
S'foods'
p449
sI443
S'keyboard'
p450
sI444
S'before'
p451
sI445
S'meat'
p452
sI446
S'side'
p453
sI447
S'enclosure'
p454
sI448
S'features'
p455
sI449
S'assortment'
p456
sI450
S'hydrant'
p457
sI451
S'girls'
p458
sI452
S'boarding'
p459
sI453
S'distance'
p460
sI454
S'modern'
p461
sI455
S'seen'
p462
sI456
S'dog'
p463
sI457
S'wearing'
p464
sI458
S'colorful'
p465
sI459
S'stop'
p466
sI460
S'tiled'
p467
sI461
S'sandy'
p468
sI462
S'bat'
p469
sI463
S'bar'
p470
sI464
S'bag'
p471
sI465
S'against'
p472
sI466
S'three'
p473
sI467
S'near'
p474
sI468
S'is'
p475
sI469
S'it'
p476
sI470
S'in'
p477
sI471
S'mouse'
p478
sI472
S'bottles'
p479
sI473
S'vegetable'
p480
sI474
S'kid'
p481
sI475
S'left'
p482
sI476
S'just'
p483
sI477
S'zoo'
p484
sI478
S'background'
p485
sI479
S'performing'
p486
sI480
S'microwave'
p487
sI481
S'skateboarder'
p488
sI482
S'down'
p489
sI483
S'flying'
p490
sI484
S'fork'
p491
sI485
S'attached'
p492
sI486
S'floating'
p493
sI487
S'pizzas'
p494
sI488
S'jacket'
p495
sI489
S'teeth'
p496
sI490
S'skis'
p497
sI491
S'round'
p498
sI492
S'eating'
p499
sI493
S'filled'
p500
sI494
S'french'
p501
sI495
S'box'
p502
sI496
S'boy'
p503
sI497
S'fly'
p504
sI498
S'making'
p505
sI499
S'pink'
p506
sI500
S'tile'
p507
sI501
S'guys'
p508
sI502
S'man'
p509
sI503
S'basket'
p510
sI504
S'tall'
p511
sI505
S'cute'
p512
sI506
S'shoes'
p513
sI507
S'group'
p514
sI508
S'monitor'
p515
sI509
S'rock'
p516
sI510
S'elephants'
p517
sI511
S'girl'
p518
sI512
S'living'
p519
sI513
S'cheese'
p520
sI514
S'little'
p521
sI515
S'eyes'
p522
sI516
S'track'
p523
sI517
S'shop'
p524
sI518
S'shot'
p525
sI519
S'show'
p526
sI520
S'corner'
p527
sI521
S'behind'
p528
sI522
S'black'
p529
sI523
S'get'
p530
sI524
S'seat'
p531
sI525
S'reading'
p532
sI526
S'tub'
p533
sI527
S'restroom'
p534
sI528
S'among'
p535
sI529
S'laptops'
p536
sI530
S'stacked'
p537
sI531
S'many'
p538
sI532
S'coffee'
p539
sI533
S'sleeping'
p540
sI534
S'middle'
p541
sI535
S'bags'
p542
sI536
S'different'
p543
sI537
S'same'
p544
sI538
S'pan'
p545
sI539
S'running'
p546
sI540
S'bottle'
p547
sI541
S'outdoor'
p548
sI542
S'pile'
p549
sI543
S'railroad'
p550
sI544
S'rocky'
p551
sI545
S'facing'
p552
sI546
S'served'
p553
sI547
S'pasture'
p554
sI548
S'knife'
p555
sI549
S'road'
p556
sI550
S'arranged'
p557
sI551
S'suitcase'
p558
sI552
S'field'
p559
sI553
S'decorated'
p560
sI554
S'remote'
p561
sI555
S'children'
p562
sI556
S'enjoying'
p563
sI557
S'sitting'
p564
sI558
S'public'
p565
sI559
S'surfer'
p566
sI560
S'airport'
p567
sI561
S'narrow'
p568
sI562
S'fenced'
p569
sI563
S'buses'
p570
sI564
S'two'
p571
sI565
S'town'
p572
sI566
S'coming'
p573
sI567
S'crowded'
p574
sI568
S'coat'
p575
sI569
S'playing'
p576
sI570
S'walls'
p577
sI571
S'house'
p578
sI572
S'fish'
p579
sI573
S'scissors'
p580
sI574
S'flower'
p581
sI575
S'park'
p582
sI576
S'mountain'
p583
sI577
S'couch'
p584
sI578
S'eggs'
p585
sI579
S'refrigerator'
p586
sI580
S'perched'
p587
sI581
S'giant'
p588
sI582
S'batter'
p589
sI583
S'motorcycles'
p590
sI584
S'restaurant'
p591
sI585
S'assorted'
p592
sI586
S'talking'
p593
sI587
S'cut'
p594
sI588
S'cup'
p595
sI589
S'kites'
p596
sI590
S'big'
p597
sI591
S'back'
p598
sI592
S'mirror'
p599
sI593
S'pen'
p600
sI594
S'boys'
p601
sI595
S'planes'
p602
sI596
S'metal'
p603
sI597
S'single'
p604
sI598
S'curb'
p605
sI599
S'brushing'
p606
sI600
S'prepares'
p607
sI601
S'desert'
p608
sI602
S'overlooking'
p609
sI603
S'vehicles'
p610
sI604
S'cooked'
p611
sI605
S'dessert'
p612
sI606
S'putting'
p613
sI607
S'paddle'
p614
sI608
S'body'
p615
sI609
S'sink'
p616
sI610
S'others'
p617
sI611
S'trail'
p618
sI612
S'holds'
p619
sI613
S'lamp'
p620
sI614
S'forest'
p621
sI615
S'buildings'
p622
sI616
S'lined'
p623
sI617
S'wedding'
p624
sI618
S'meter'
p625
sI619
S'bunch'
p626
sI620
S'cutting'
p627
sI621
S'day'
p628
sI622
S'red'
p629
sI623
S'racquet'
p630
sI624
S'yard'
p631
sI625
S'skateboard'
p632
sI626
S'gear'
p633
sI627
S'have'
p634
sI628
S'kite'
p635
sI629
S'bear'
p636
sI630
S'striped'
p637
sI631
S'racket'
p638
sI632
S'taking'
p639
sI633
S'passing'
p640
sI634
S"it's"
p641
sI635
S'curtain'
p642
sI636
S'center'
p643
sI637
S'lake'
p644
sI638
S'bench'
p645
sI639
S'match'
p646
sI640
S'like'
p647
sI641
S'hair'
p648
sI642
S'about'
p649
sI643
S'boards'
p650
sI644
S'female'
p651
sI645
S'stainless'
p652
sI646
S'vegetables'
p653
sI647
S'bus'
p654
sI648
S'bun'
p655
sI649
S'dressed'
p656
sI650
S'ledge'
p657
sI651
S'feeding'
p658
sI652
S'under'
p659
sI653
S'fireplace'
p660
sI654
S'school'
p661
sI655
S'bicycle'
p662
sI656
S'street'
p663
sI657
S'blue'
p664
sI658
S'path'
p665
sI659
S'luggage'
p666
sI660
S'leaves'
p667
sI661
S'swings'
p668
sI662
S'phone'
p669
sI663
S'end'
p670
sI664
S'jumping'
p671
sI665
S'over'
p672
sI666
S'oven'
p673
sI667
S'potatoes'
p674
sI668
S'each'
p675
sI669
S'driving'
p676
sI670
S'rail'
p677
sI671
S'onto'
p678
sI672
S'toy'
p679
sI673
S'their'
p680
sI674
S'top'
p681
sI675
S'ceiling'
p682
sI676
S'serve'
p683
sI677
S'bridge'
p684
sI678
S'snow'
p685
sI679
S'rides'
p686
sI680
S'colors'
p687
sI681
S'sunglasses'
p688
sI682
S'watch'
p689
sI683
S'toothbrush'
p690
sI684
S'players'
p691
sI685
S'games'
p692
sI686
S'bathroom'
p693
sI687
S'been'
p694
sI688
S'beer'
p695
sI689
S'catch'
p696
sI690
S'containing'
p697
sI691
S'beside'
p698
sI692
S'several'
p699
sI693
S'ocean'
p700
sI694
S'mother'
p701
sI695
S'laptop'
p702
sI696
S'ice'
p703
sI697
S'christmas'
p704
sI698
S'dinner'
p705
sI699
S'bath'
p706
sI700
S'head'
p707
sI701
S'no'
p708
sI702
S'setting'
p709
sI703
S'tie'
p710
sI704
S'picture'
p711
sI705
S'row'
p712
sI706
S'stove'
p713
sI707
S'couches'
p714
sI708
S'cloudy'
p715
sI709
S'says'
p716
sI710
S'drinks'
p717
sI711
S'tarmac'
p718
sI712
S'water'
p719
sI713
S'baseball'
p720
sI714
S'dirt'
p721
sI715
S'chocolate'
p722
sI716
S'birthday'
p723
sI717
S'platform'
p724
sI718
S'underneath'
p725
sI719
S'zebra'
p726
sI720
S'place'
p727
sI721
S'swing'
p728
sI722
S'plastic'
p729
sI723
S'white'
p730
sI724
S'and'
p731
sI725
S'dining'
p732
sI726
S'surf'
p733
sI727
S'multiple'
p734
sI728
S'slope'
p735
sI729
S'wood'
p736
sI730
S'through'
p737
sI731
S'picnic'
p738
sI732
S'parking'
p739
sI733
S'outside'
p740
sI734
S'pot'
p741
sI735
S'pole'
p742
sI736
S'umpire'
p743
sI737
S'engine'
p744
sI738
S'case'
p745
sI739
S'someone'
p746
sI740
S'helmet'
p747
sI741
S'bowl'
p748
sI742
S'statue'
p749
sI743
S'fridge'
p750
sI744
S'furniture'
p751
sI745
S'towel'
p752
sI746
S'tower'
p753
sI747
S'slice'
p754
sI748
S'on'
p755
sI749
S'of'
p756
sI750
S'stand'
p757
sI751
S'or'
p758
sI752
S'there'
p759
sI753
S'cabinet'
p760
sI754
S'grass'
p761
sI755
S'toilet'
p762
sI756
S'trash'
p763
sI757
S'pillows'
p764
sI758
S'dish'
p765
sI759
S'woman'
p766
sI760
S'sun'
p767
sI761
S'sticking'
p768
sI762
S'appliances'
p769
sI763
S'donuts'
p770
sI764
S'horses'
p771
sI765
S'flat'
p772
sI766
S'flag'
p773
sI767
S'computers'
p774
sI768
S'urinals'
p775
sI769
S'pond'
p776
sI770
S'airplane'
p777
sI771
S'court'
p778
sI772
S'sandwich'
p779
sI773
S'shore'
p780
sI774
S'style'
p781
sI775
S'soccer'
p782
sI776
S'hill'
p783
sI777
S'guy'
p784
sI778
S'fancy'
p785
sI779
S'feet'
p786
sI780
S'store'
p787
sI781
S'hotel'
p788
sI782
S'surfboard'
p789
sI783
S'stall'
p790
sI784
S'outdoors'
p791
sI785
S'sandwiches'
p792
sI786
S'stands'
p793
sI787
S'windows'
p794
sI788
S'lying'
p795
sI789
S'his'
p796
sI790
S'hit'
p797
sI791
S'him'
p798
sI792
S'are'
p799
sI793
S'arm'
p800
sI794
S'various'
p801
sI795
S'flies'
p802
sI796
S'brick'
p803
sI797
S'plants'
p804
sI798
S'shirt'
p805
sI799
S'cement'
p806
sI800
S'moving'
p807
sI801
S'edge'
p808
sI802
S'hotdog'
p809
sI803
S'tables'
p810
sI804
S'shaped'
p811
sI805
S'controllers'
p812
sI806
S'jumps'
p813
sI807
S'surfers'
p814
sI808
S'lone'
p815
sI809
S'long'
p816
sI810
S'mountains'
p817
sI811
S'fries'
p818
sI812
S'nice'
p819
sI813
S'spoon'
p820
sI814
S'drinking'
p821
sI815
S'traveling'
p822
sI816
S'waiting'
p823
sI817
S'apple'
p824
sI818
S'motor'
p825
sI819
S'from'
p826
sI820
S'few'
p827
sI821
S'women'
p828
sI822
S'something'
p829
sI823
S'onions'
p830
sI824
S'sit'
p831
sI825
S'light'
p832
sI826
S'looks'
p833
sI827
S'orange'
p834
sI828
S'covered'
p835
sI829
S'oranges'
p836
sI830
S'tray'
p837
sI831
S'out'
p838
sI832
S'river'
p839
sI833
S'umbrellas'
p840
sI834
S'shelf'
p841
sI835
S'which'
p842
sI836
S'who'
p843
sI837
S'chicken'
p844
sI838
S'watching'
p845
sI839
S'view'
p846
sI840
S'wall'
p847
sI841
S'walk'
p848
sI842
S'table'
p849
sI843
S'painted'
p850
sI844
S'wild'
p851
sI845
S'vintage'
p852
sI846
S'cross'
p853
sI847
S'tomatoes'
p854
sI848
S'other'
p855
sI849
S'ski'
p856
sI850
S'doughnut'
p857
sI851
S'pasta'
p858
sI852
S'brush'
p859
sI853
S'van'
p860
sI854
S'made'
p861
sI855
S'below'
p862
sI856
S'catching'
p863
sI857
S'cake'
p864
sI858
S'book'
p865
sI859
S'branch'
p866
ssS'word2idx'
p867
(dp868
g735
I728
sg214
I206
sg332
I324
sg828
I821
sg497
I490
sg12
I4
sg13
I5
sg14
I6
sg436
I429
sg64
I56
sg383
I376
sg65
I57
sg562
I555
sg712
I705
sg658
I651
sg116
I108
sg569
I562
sg165
I157
sg117
I109
sg66
I58
sg215
I207
sg659
I652
sg384
I377
sg563
I556
sg751
I744
sg269
I261
sg766
I759
sg166
I158
sg564
I557
sg333
I325
sg612
I605
sg216
I208
sg385
I378
sg820
I813
sg217
I209
sg270
I262
sg821
I814
sg660
I653
sg16
I8
sg714
I707
sg17
I9
sg118
I110
sg687
I680
sg715
I708
sg119
I111
sg120
I112
sg63
I55
sg67
I59
sg68
I60
sg121
I113
sg271
I263
sg139
I131
sg438
I431
sg662
I655
sg334
I326
sg156
I148
sg218
I210
sg15
I7
sg69
I61
sg122
I114
sg765
I758
sg663
I656
sg168
I160
sg822
I815
sg499
I492
sg717
I710
sg613
I606
sg387
I380
sg793
I786
sg123
I115
sg767
I760
sg18
I10
sg474
I467
sg614
I607
sg272
I264
sg389
I382
sg441
I434
sg823
I816
sg390
I383
sg219
I211
sg307
I299
sg169
I161
sg500
I493
sg615
I608
sg124
I116
sg220
I212
sg170
I162
sg442
I435
sg391
I384
sg501
I494
sg19
I11
sg719
I712
sg335
I327
sg720
I713
sg616
I609
sg336
I328
sg70
I62
sg665
I658
sg71
I63
sg443
I436
sg72
I64
sg20
I12
sg337
I329
sg666
I659
sg221
I213
sg667
I660
sg567
I560
sg568
I561
sg273
I265
sg768
I761
sg399
I392
sg824
I817
sg338
I330
sg444
I437
sg554
I547
sg393
I386
sg398
I391
sg445
I438
sg752
I745
sg274
I266
sg769
I762
sg739
I732
sg275
I267
sg629
I622
sg171
I163
sg668
I661
sg826
I819
sg339
I331
sg74
I66
sg770
I763
sg571
I564
sg157
I149
sg827
I820
sg394
I387
sg395
I388
sg340
I332
sg771
I764
sg772
I765
sg125
I117
sg649
I642
sg722
I715
sg21
I13
sg773
I766
sg163
I155
sg446
I439
sg174
I166
sg342
I334
sg650
I643
sg504
I497
sg176
I168
sg447
I440
sg396
I389
sg541
I534
sg177
I169
sg276
I268
sg397
I390
sg222
I214
sg448
I441
sg277
I269
sg278
I270
sg388
I381
sg279
I271
sg400
I393
sg126
I118
sg829
I822
sg127
I119
sg280
I272
sg175
I167
sg178
I170
sg449
I442
sg281
I273
sg775
I768
sg343
I335
sg776
I769
sg777
I770
sg814
I807
sg128
I120
sg506
I499
sg129
I121
sg670
I663
sg831
I824
sg830
I823
sg530
I523
sg22
I14
sg621
I614
sg180
I172
sg75
I67
sg223
I215
sg224
I216
sg225
I217
sg130
I122
sg779
I772
sg573
I566
sg747
I740
sg466
I459
sg226
I218
sg697
I690
sg131
I123
sg636
I629
sg282
I274
sg181
I173
sg437
I430
sg227
I219
sg23
I15
sg509
I502
sS'a'
I336
sg76
I68
sg239
I231
sg574
I567
sg283
I275
sg182
I174
sg780
I773
sg228
I220
sg852
I845
sg510
I503
sg511
I504
sg623
I616
sg78
I70
sg576
I569
sg24
I16
sg512
I505
sg284
I276
sg513
I506
sg229
I221
sg672
I665
sg285
I277
sg625
I618
sg133
I125
sg401
I394
sg183
I175
sg673
I666
sg134
I126
sg135
I127
sg136
I128
sg451
I444
sg781
I774
sg418
I411
sg515
I508
sg25
I17
sg620
I613
sg724
I717
sg287
I279
sg834
I827
sg835
I828
sg782
I775
sg137
I129
sg104
I96
sg230
I222
sg746
I739
sg344
I337
sg661
I654
sg836
I829
sg140
I132
sg725
I718
sg184
I176
sg577
I570
sg232
I224
sg233
I225
sg288
I280
sg289
I281
sg185
I177
sg26
I18
sg234
I226
sg382
I375
sg452
I445
sg674
I667
sg235
I227
sg346
I339
sg854
I847
sg516
I509
sg405
I398
sg837
I830
sg103
I95
sg186
I178
sg79
I71
sg517
I510
sg187
I179
sg578
I571
sg579
I572
sg622
I615
sg27
I19
sg675
I668
sg188
I180
sg726
I719
sg236
I228
sg290
I282
sg468
I461
sg838
I831
sg519
I512
sg291
I283
sg581
I574
sg80
I72
sg676
I669
sg292
I284
sg331
I323
sg628
I621
sg293
I285
sg167
I159
sg783
I776
sg138
I130
sg294
I286
sg406
I399
sg721
I714
sg295
I287
sg521
I514
sg296
I288
sg348
I341
sg806
I799
sg784
I777
sg341
I333
sg631
I624
sg28
I20
sg774
I767
sg632
I625
sg498
I491
sg671
I664
sg727
I720
sg728
I721
sg846
I839
sg678
I671
sg520
I513
sg490
I483
sg455
I448
sg458
I451
sg132
I124
sg349
I342
sg231
I223
sg785
I778
sg81
I73
sg786
I779
sg804
I797
sg238
I230
sg580
I573
sg82
I74
sg840
I833
sg298
I290
sg83
I75
sg350
I343
sg679
I672
sg457
I450
sg141
I133
sg407
I400
sg508
I501
sg681
I674
sg237
I229
sg729
I722
sg680
I673
sg308
I300
sg84
I76
sg842
I835
sg730
I723
sg29
I21
sg240
I232
sg787
I780
sg789
I782
sg522
I515
sg323
I315
sg189
I181
sg841
I834
sg565
I558
sg788
I781
sg582
I575
sg778
I771
sg300
I292
sg643
I636
sg190
I182
sg386
I379
sg301
I293
sg362
I355
sg30
I22
sg352
I345
sg241
I233
sg351
I344
sg31
I23
sg790
I783
sg302
I294
sg303
I295
sg353
I346
sg799
I792
sg731
I724
sg684
I677
sg242
I234
sg424
I417
sg243
I235
sg682
I675
sg593
I586
sg791
I784
sg142
I134
sg634
I627
sg462
I455
sg304
I296
sg633
I626
sg583
I576
sg191
I183
sg32
I24
sg299
I291
sg255
I247
sg484
I477
sg354
I347
sg305
I297
sg808
I801
sg85
I77
sg33
I25
sg77
I69
sg538
I531
sg686
I679
sg733
I726
sg664
I657
sg143
I135
sg355
I348
sg734
I727
sg34
I26
sg523
I516
sg683
I676
sg585
I578
sg35
I27
sg36
I28
sg356
I349
sg179
I171
sg586
I579
sg411
I404
sg711
I704
sg794
I787
sg357
I350
sg603
I596
sg463
I456
sg264
I256
sg358
I351
sg306
I298
sg809
I802
sg192
I184
sg795
I788
sg524
I517
sg86
I78
sg525
I518
sg635
I628
sg526
I519
sg713
I706
sg689
I682
sg87
I79
sg193
I185
sg413
I406
sg194
I186
sg587
I580
sg527
I520
sg844
I837
sg467
I460
sg144
I136
sg718
I711
sg588
I581
sg37
I29
sg404
I397
sg740
I733
sg88
I80
sg529
I522
sg359
I352
sg195
I187
sg845
I838
sg38
I30
sg464
I457
sg39
I31
sg796
I789
sg688
I681
sg465
I458
sg89
I81
sg759
I752
sg145
I137
sg408
I401
sg360
I353
sg589
I582
sg146
I138
sg624
I617
sg361
I354
sg637
I630
sg798
I791
sg414
I407
sg469
I462
sg402
I395
sg470
I463
sg590
I583
sg415
I408
sg461
I454
sg439
I432
sg471
I464
sg416
I409
sg737
I730
sg839
I832
sg90
I82
sg833
I826
sg147
I139
sg738
I731
sg363
I356
sg818
I811
sg392
I385
sg502
I495
sg531
I524
sg148
I140
sg380
I373
sg409
I402
sg196
I188
sg638
I631
sg364
I357
sg800
I793
sg507
I500
sg197
I189
sg40
I32
sg365
I358
sg244
I236
sg862
I855
sg286
I278
sg528
I521
sg801
I794
sg309
I301
sg245
I237
sg532
I525
sg91
I83
sg59
I51
sg810
I803
sg450
I443
sg92
I84
sg602
I595
sg690
I683
sg594
I587
sg539
I532
sg708
I701
sg514
I507
sg533
I526
sg566
I559
sg619
I612
sg246
I238
sg366
I359
sg10
I2
sg761
I754
sg247
I239
sg591
I584
sg41
I33
sg639
I632
sg198
I190
sg472
I465
sg534
I527
sg691
I684
sg692
I685
sg640
I633
sg310
I302
sg535
I528
sg802
I795
sg762
I755
sg847
I840
sg741
I734
sg617
I610
sg848
I841
sg742
I735
sg149
I141
sg849
I842
sg645
I638
sg42
I34
sg93
I85
sg693
I686
sg832
I825
sg94
I86
sg641
I634
sg473
I466
sg694
I687
sg150
I142
sg695
I688
sg642
I635
sg803
I796
sg311
I303
sg367
I360
sg596
I589
sg744
I737
sg151
I143
sg410
I403
sg503
I496
sg152
I144
sg8
I0
sg328
I320
sg536
I529
sg419
I412
sg703
I696
sg43
I35
sg696
I689
sg312
I304
sg745
I738
sg736
I729
sg537
I530
sg369
I362
sg657
I650
sg856
I849
sg199
I191
sg604
I597
sg249
I241
sg313
I305
sg440
I433
sg646
I639
sg153
I145
sg851
I844
sg200
I192
sg475
I468
sg201
I193
sg476
I469
sg420
I413
sg540
I533
sg44
I36
sg370
I363
sg421
I414
sg477
I470
sg371
I364
sg202
I194
sg478
I471
sg542
I535
sg543
I536
sg479
I472
sg805
I798
sg45
I37
sg748
I741
sg853
I846
sg544
I537
sg698
I691
sg480
I473
sg250
I242
sg699
I692
sg155
I147
sg545
I538
sg203
I195
sg347
I340
sg677
I670
sg251
I243
sg252
I244
sg546
I539
sg314
I306
sg807
I800
sg749
I742
sg456
I449
sg204
I196
sg481
I474
sg205
I197
sg422
I415
sg372
I365
sg423
I416
sg373
I366
sg375
I368
sg700
I693
sg154
I146
sg627
I620
sg547
I540
sg95
I87
sg208
I200
sg253
I245
sg482
I475
sg548
I541
sg206
I198
sg483
I476
sg96
I88
sg254
I246
sg702
I695
sg403
I396
sg723
I716
sg685
I678
sg345
I338
sg207
I199
sg584
I577
sg857
I850
sg732
I725
sg425
I418
sg315
I307
sg595
I588
sg570
I563
sg73
I65
sg644
I637
sg316
I308
sg47
I39
sg855
I848
sg549
I542
sg256
I248
sg368
I361
sg248
I240
sg48
I40
sg97
I89
sg98
I90
sg865
I858
sg99
I91
sg597
I590
sg46
I38
sg750
I743
sg100
I92
sg257
I249
sg101
I93
sg485
I478
sg209
I201
sg317
I309
sg550
I543
sg49
I41
sg318
I310
sg551
I544
sg850
I843
sg374
I367
sg647
I640
sg811
I804
sg210
I202
sg376
I369
sg486
I479
sg552
I545
sg50
I42
sg258
I250
sg626
I619
sg553
I546
sg753
I746
sg505
I498
sg51
I43
sg52
I44
sg825
I818
sg53
I45
sg54
I46
sg377
I370
sg598
I591
sg669
I662
sg648
I641
sg599
I592
sg427
I420
sg701
I694
sg812
I805
sg754
I747
sg55
I47
sg56
I48
sg259
I251
sg487
I480
sg600
I593
sg211
I203
sg488
I481
sg704
I697
sg555
I548
sg9
I1
sg716
I709
sg843
I836
sg378
I371
sg319
I311
sg428
I421
sg813
I806
sg260
I252
sg379
I372
sg858
I851
sg792
I785
sg261
I253
sg320
I312
sg755
I748
sg102
I94
sg57
I49
sg213
I205
sg756
I749
sg453
I446
sg705
I698
sg429
I422
sg757
I750
sg758
I751
sg556
I549
sg212
I204
sg158
I150
sg706
I699
sg489
I482
sg859
I852
sg651
I644
sg172
I164
sg630
I623
sg860
I853
sg105
I97
sg321
I313
sg652
I645
sg653
I646
sg297
I289
sg815
I808
sg816
I809
sg322
I314
sg262
I254
sg159
I151
sg491
I484
sg817
I810
sg707
I700
sg263
I255
sg654
I647
sg160
I152
sg324
I316
sg760
I753
sg601
I594
sg412
I405
sg655
I648
sg866
I859
sg161
I153
sg325
I317
sg106
I98
sg430
I423
sg431
I424
sg459
I452
sg861
I854
sg557
I550
sg58
I50
sg492
I485
sg162
I154
sg417
I410
sg432
I425
sg863
I856
sg107
I99
sg558
I551
sg864
I857
sg433
I426
sg434
I427
sg11
I3
sg60
I52
sg381
I374
sg743
I736
sg108
I100
sg109
I101
sg110
I102
sg605
I598
sg111
I103
sg112
I104
sg493
I486
sg518
I511
sg113
I105
sg797
I790
sg495
I488
sg326
I318
sg61
I53
sg656
I649
sg592
I585
sg265
I257
sg454
I447
sg559
I552
sg709
I702
sg266
I258
sg710
I703
sg763
I756
sg819
I812
sg606
I599
sg327
I319
sg426
I419
sg764
I757
sg496
I489
sg460
I453
sg572
I565
sg435
I428
sg607
I600
sg560
I553
sg494
I487
sg608
I601
sg329
I321
sg330
I322
sg575
I568
sg561
I554
sg609
I602
sg618
I611
sg114
I106
sg610
I603
sg267
I259
sg268
I260
sg611
I604
sg173
I165
sg62
I54
sg164
I156
sg115
I107
ssS'idx'
p869
I860
sb.