ccopy_reg
_reconstructor
p0
(c__main__
Vocab
p1
c__builtin__
object
p2
Ntp3
Rp4
(dp5
S'idx2word'
p6
(dp7
I0
S'<null>'
p8
sI1
S'<start>'
p9
sI2
S'<end>'
p10
sI3
S'<unk>'
p11
sI4
S'yellow'
p12
sI5
S'four'
p13
sI6
S'woods'
p14
sI7
S'hanging'
p15
sI8
S'wooded'
p16
sI9
S'wooden'
p17
sI10
S'cooking'
p18
sI11
S'herd'
p19
sI12
S'kids'
p20
sI13
S'glass'
p21
sI14
S'hot'
p22
sI15
S'types'
p23
sI16
S'wine'
p24
sI17
S'backpack'
p25
sI18
S'silver'
p26
sI19
S'bowls'
p27
sI20
S'shelves'
p28
sI21
S'legs'
p29
sI22
S'tree'
p30
sI23
S'shower'
p31
sI24
S'concrete'
p32
sI25
S'doors'
p33
sI26
S'zebras'
p34
sI27
S'object'
p35
sI28
S'mouth'
p36
sI29
S'busy'
p37
sI30
S'rice'
p38
sI31
S'plate'
p39
sI32
S'lots'
p40
sI33
S'country'
p41
sI34
S'grazing'
p42
sI35
S'child'
p43
sI36
S'player'
p44
sI37
S'things'
p45
sI38
S'skateboards'
p46
sI39
S'hay'
p47
sI40
S'hat'
p48
sI41
S'poses'
p49
sI42
S'steps'
p50
sI43
S'right'
p51
sI44
S'old'
p52
sI45
S'crowd'
p53
sI46
S'people'
p54
sI47
S'for'
p55
sI48
S'bottom'
p56
sI49
S'benches'
p57
sI50
S'inside'
p58
sI51
S'lays'
p59
sI52
S'passenger'
p60
sI53
S'floor'
p61
sI54
S'time'
p62
sI55
S'skate'
p63
sI56
S'skiing'
p64
sI57
S'chair'
p65
sI58
S'bicycles'
p66
sI59
S'subway'
p67
sI60
S'team'
p68
sI61
S'sign'
p69
sI62
S'alone'
p70
sI63
S'along'
p71
sI64
S'passengers'
p72
sI65
S'sky'
p73
sI66
S'working'
p74
sI67
S'elephant'
p75
sI68
S'surfing'
p76
sI69
S'truck'
p77
sI70
S'pulled'
p78
sI71
S'square'
p79
sI72
S'container'
p80
sI73
S'one'
p81
sI74
S'open'
p82
sI75
S'city'
p83
sI76
S'stuffed'
p84
sI77
S'take'
p85
sI78
S'walking'
p86
sI79
S'bright'
p87
sI80
S'going'
p88
sI81
S'suitcases'
p89
sI82
S'where'
p90
sI83
S'surfboards'
p91
sI84
S'screen'
p92
sI85
S'boat'
p93
sI86
S'teddy'
p94
sI87
S'trains'
p95
sI88
S'being'
p96
sI89
S'skies'
p97
sI90
S'skier'
p98
sI91
S'around'
p99
sI92
S'dark'
p100
sI93
S'traffic'
p101
sI94
S'stone'
p102
sI95
S'meal'
p103
sI96
S'image'
p104
sI97
S'her'
p105
sI98
S'with'
p106
sI99
S'dirty'
p107
sI100
S'watches'
p108
sI101
S'an'
p109
sI102
S'as'
p110
sI103
S'at'
p111
sI104
S'walks'
p112
sI105
S'cream'
p113
sI106
S'tricks'
p114
sI107
S'having'
p115
sI108
S'tv'
p116
sI109
S'to'
p117
sI110
S'laying'
p118
sI111
S'large'
p119
sI112
S'sand'
p120
sI113
S'small'
p121
sI114
S'past'
p122
sI115
S'clock'
p123
sI116
S'full'
p124
sI117
S'door'
p125
sI118
S'male'
p126
sI119
S'beautiful'
p127
sI120
S'dress'
p128
sI121
S'huge'
p129
sI122
S'plant'
p130
sI123
S'plane'
p131
sI124
S'waves'
p132
sI125
S'paper'
p133
sI126
S'signs'
p134
sI127
S'smiling'
p135
sI128
S'its'
p136
sI129
S'sauce'
p137
sI130
S'highway'
p138
sI131
S'rack'
p139
sI132
S'number'
p140
sI133
S'jet'
p141
sI134
S'graffiti'
p142
sI135
S'play'
p143
sI136
S'blender'
p144
sI137
S'sunny'
p145
sI138
S'preparing'
p146
sI139
S'set'
p147
sI140
S'see'
p148
sI141
S'church'
p149
sI142
S'hitting'
p150
sI143
S'resting'
p151
sI144
S'fire'
p152
sI145
S'leaning'
p153
sI146
S'person'
p154
sI147
S'couple'
p155
sI148
S'be'
p156
sI149
S'by'
p157
sI150
S'into'
p158
sI151
S'suit'
p159
sI152
S'atop'
p160
sI153
S'line'
p161
sI154
S'up'
p162
sI155
S'train'
p163
sI156
S'fresh'
p164
sI157
S'young'
p165
sI158
S'garden'
p166
sI159
S'race'
p167
sI160
S'video'
p168
sI161
S'bird'
p169
sI162
S'gathered'
p170
sI163
S'standing'
p171
sI164
S'next'
p172
sI165
S'carrying'
p173
sI166
S'baby'
p174
sI167
S'pieces'
p175
sI168
S'animals'
p176
sI169
S'this'
p177
sI170
S'high'
p178
sI171
S'pair'
p179
sI172
S'animal'
p180
sI173
S'ties'
p181
sI174
S'counter'
p182
sI175
S'motorcycle'
p183
sI176
S'dock'
p184
sI177
S'cage'
p185
sI178
S'glasses'
p186
sI179
S'doing'
p187
sI180
S'books'
p188
sI181
S'shorts'
p189
sI182
S'steel'
p190
sI183
S'dishes'
p191
sI184
S'painting'
p192
sI185
S'bikes'
p193
sI186
S'bedroom'
p194
sI187
S'riding'
p195
sI188
S'skateboarding'
p196
sI189
S'wire'
p197
sI190
S'ramp'
p198
sI191
S'runway'
p199
sI192
S'bathtub'
p200
sI193
S'lush'
p201
sI194
S'sits'
p202
sI195
S'ball'
p203
sI196
S'broccoli'
p204
sI197
S'off'
p205
sI198
S'bananas'
p206
sI199
S'clocks'
p207
sI200
S'five'
p208
sI201
S'desk'
p209
sI202
S'chairs'
p210
sI203
S'does'
p211
sI204
S'swimming'
p212
sI205
S'getting'
p213
sI206
S'all'
p214
sI207
S'bike'
p215
sI208
S'blanket'
p216
sI209
S'closeup'
p217
sI210
S'phones'
p218
sI211
S'above'
p219
sI212
S'sinks'
p220
sI213
S'items'
p221
sI214
S'work'
p222
sI215
S'boats'
p223
sI216
S'beach'
p224
sI217
S'pizza'
p225
sI218
S'after'
p226
sI219
S'lap'
p227
sI220
S'green'
p228
sI221
S'office'
p229
sI222
S'them'
p230
sI223
S'scene'
p231
sI224
S'giraffe'
p232
sI225
S'they'
p233
sI226
S'bread'
p234
sI227
S'rocks'
p235
sI228
S'flock'
p236
sI229
S'pots'
p237
sI230
S'another'
p238
sI231
S'neck'
p239
sI232
S'dogs'
p240
sI233
S'seated'
p241
sI234
S'giraffes'
p242
sI235
S'cattle'
p243
sI236
S'away'
p244
sI237
S'drawn'
p245
sI238
S'kitchen'
p246
sI239
S'cow'
p247
sI240
S'has'
p248
sI241
S'air'
p249
sI242
S'plates'
p250
sI243
S'rain'
p251
sI244
S'hand'
p252
sI245
S'the'
p253
sI246
S'photo'
p254
sI247
S'mid'
p255
sI248
S'board'
p256
sI249
S'boxes'
p257
sI250
S'night'
p258
sI251
S'purple'
p259
sI252
S'pose'
p260
sI253
S'post'
p261
sI254
S'way'
p262
sI255
S'snowy'
p263
sI256
S'face'
p264
sI257
S'topped'
p265
sI258
S'holding'
p266
sI259
S'together'
p267
sI260
S'beds'
p268
sI261
S'brown'
p269
sI262
S'kitten'
p270
sI263
S'sidewalk'
p271
sI264
S'uniform'
p272
sI265
S'pillow'
p273
sI266
S'snowboard'
p274
sI267
S'market'
p275
sI268
S'car'
p276
sI269
S'cat'
p277
sI270
S'decker'
p278
sI271
S'can'
p279
sI272
S'grassy'
p280
sI273
S'posing'
p281
sI274
S'vases'
p282
sI275
S'candles'
p283
sI276
S'serving'
p284
sI277
S'displayed'
p285
sI278
S'birds'
p286
sI279
S'window'
p287
sI280
S'half'
p288
sI281
S'not'
p289
sI282
S'monitors'
p290
sI283
S'shown'
p291
sI284
S'space'
p292
sI285
S'looking'
p293
sI286
S'shows'
p294
sI287
S'cars'
p295
sI288
S'cart'
p296
sI289
S'tennis'
p297
sI290
S'sheep'
p298
sI291
S'that'
p299
sI292
S'flowers'
p300
sI293
S'television'
p301
sI294
S'apples'
p302
sI295
S'fruits'
p303
sI296
S'breakfast'
p304
sI297
S'equipment'
p305
sI298
S'professional'
p306
sI299
S'ground'
p307
sI300
S'station'
p308
sI301
S'between'
p309
sI302
S'nearby'
p310
sI303
S'staring'
p311
sI304
S'skiers'
p312
sI305
S'trick'
p313
sI306
S'fruit'
p314
sI307
S'snowboarder'
p315
sI308
S'desktop'
p316
sI309
S'using'
p317
sI310
S'lady'
p318
sI311
S'business'
p319
sI312
S'throw'
p320
sI313
S'area'
p321
sI314
S'cats'
p322
sI315
S'lot'
p323
sI316
S'pitcher'
p324
sI317
S'trying'
p325
sI318
S'cabinets'
p326
sI319
S'polar'
p327
sI320
S'airplanes'
p328
sI321
S'pool'
p329
sI322
S'building'
p330
sI323
S'surrounded'
p331
sI324
S'pointing'
p332
sI325
S'very'
p333
sI326
S'fence'
p334
sI327
S'tracks'
p335
sI328
S'trunk'
p336
sI329
S'colored'
p337
sI330
S'family'
p338
sI331
S'takes'
p339
sI332
S'taken'
p340
sI333
S'bushes'
p341
sI334
S'mounted'
p342
sI335
S'cows'
p343
sI336
S'a'
p344
sI337
S'food'
p345
sI338
S'foot'
p346
sI339
S'stopped'
p347
sI340
S'drink'
p348
sI341
S'base'
p349
sI342
S'doughnuts'
p350
sI343
S'horse'
p351
sI344
S'banana'
p352
sI345
S'grey'
p353
sI346
S'toward'
p354
sI347
S'lit'
p355
sI348
S'towards'
p356
sI349
S'eaten'
p357
sI350
S'clear'
p358
sI351
S'clean'
p359
sI352
S'pretty'
p360
sI353
S'trees'
p361
sI354
S'during'
p362
sI355
S'double'
p363
sI356
S'throwing'
p364
sI357
S'close'
p365
sI358
S'pictures'
p366
sI359
S'both'
p367
sI360
S'empty'
p368
sI361
S'wet'
p369
sI362
S'look'
p370
sI363
S'reads'
p371
sI364
S'ready'
p372
sI365
S'older'
p373
sI366
S'docked'
p374
sI367
S'showing'
p375
sI368
S'game'
p376
sI369
S'sofa'
p377
sI370
S'some'
p378
sI371
S'run'
p379
sI372
S'rug'
p380
sI373
S'computer'
p381
sI374
S'adults'
p382
sI375
S'smiles'
p383
sI376
S'go'
p384
sI377
S'cluttered'
p385
sI378
S'wave'
p386
sI379
S'jump'
p387
sI380
S'plays'
p388
sI381
S'soup'
p389
sI382
S'cell'
p390
sI383
S'poles'
p391
sI384
S'commercial'
p392
sI385
S'pitch'
p393
sI386
S'wii'
p394
sI387
S'camera'
p395
sI388
S'vehicle'
p396
sI389
S'salad'
p397
sI390
S'ride'
p398
sI391
S'donut'
p399
sI392
S'control'
p400
sI393
S'pulling'
p401
sI394
S'including'
p402
sI395
S'catcher'
p403
sI396
S'hands'
p404
sI397
S'front'
p405
sI398
S'crossing'
p406
sI399
S'umbrella'
p407
sI400
S'bears'
p408
sI401
S'photograph'
p409
sI402
S'bed'
p410
sI403
S'carrots'
p411
sI404
S'cellphone'
p412
sI405
S'construction'
p413
sI406
S'parked'
p414
sI407
S'gray'
p415
sI408
S'trucks'
p416
sI409
S'she'
p417
sI410
S'placed'
p418
sI411
S'police'
p419
sI412
S'controller'
p420
sI413
S'surface'
p421
sI414
S'swinging'
p422
sI415
S'reflection'
p423
sI416
S'variety'
p424
sI417
S'well'
p425
sI418
S'intersection'
p426
sI419
S'frisbee'
p427
sI420
S'home'
p428
sI421
S'reaching'
p429
sI422
S'toppings'
p430
sI423
S'eat'
p431
sI424
S'he'
p432
sI425
S'carriage'
p433
sI426
S'piece'
p434
sI427
S'display'
p435
sI428
S'nintendo'
p436
sI429
S'asian'
p437
sI430
S'vase'
p438
sI431
S'clothes'
p439
sI432
S'across'
p440
sI433
S'while'
p441
sI434
S'lights'
p442
sI435
S'men'
p443
sI436
S'dry'
p444
sI437
S'slices'
p445
sI438
S'sliced'
p446
sI439
S'adult'
p447
sI440
S'room'
p448
sI441
S'roof'
p449
sI442
S'foods'
p450
sI443
S'keyboard'
p451
sI444
S'before'
p452
sI445
S'meat'
p453
sI446
S'side'
p454
sI447
S'enclosure'
p455
sI448
S'features'
p456
sI449
S'assortment'
p457
sI450
S'hydrant'
p458
sI451
S'girls'
p459
sI452
S'boarding'
p460
sI453
S'distance'
p461
sI454
S'modern'
p462
sI455
S'seen'
p463
sI456
S'dog'
p464
sI457
S'wearing'
p465
sI458
S'colorful'
p466
sI459
S'stop'
p467
sI460
S'tiled'
p468
sI461
S'sandy'
p469
sI462
S'bat'
p470
sI463
S'bar'
p471
sI464
S'bag'
p472
sI465
S'against'
p473
sI466
S'three'
p474
sI467
S'near'
p475
sI468
S'is'
p476
sI469
S'it'
p477
sI470
S'in'
p478
sI471
S'mouse'
p479
sI472
S'bottles'
p480
sI473
S'vegetable'
p481
sI474
S'kid'
p482
sI475
S'left'
p483
sI476
S'just'
p484
sI477
S'zoo'
p485
sI478
S'background'
p486
sI479
S'performing'
p487
sI480
S'microwave'
p488
sI481
S'skateboarder'
p489
sI482
S'down'
p490
sI483
S'flying'
p491
sI484
S'fork'
p492
sI485
S'attached'
p493
sI486
S'floating'
p494
sI487
S'pizzas'
p495
sI488
S'jacket'
p496
sI489
S'teeth'
p497
sI490
S'skis'
p498
sI491
S'round'
p499
sI492
S'eating'
p500
sI493
S'filled'
p501
sI494
S'french'
p502
sI495
S'box'
p503
sI496
S'boy'
p504
sI497
S'fly'
p505
sI498
S'making'
p506
sI499
S'pink'
p507
sI500
S'tile'
p508
sI501
S'guys'
p509
sI502
S'man'
p510
sI503
S'basket'
p511
sI504
S'tall'
p512
sI505
S'cute'
p513
sI506
S'shoes'
p514
sI507
S'group'
p515
sI508
S'monitor'
p516
sI509
S'rock'
p517
sI510
S'elephants'
p518
sI511
S'girl'
p519
sI512
S'living'
p520
sI513
S'cheese'
p521
sI514
S'little'
p522
sI515
S'eyes'
p523
sI516
S'track'
p524
sI517
S'shop'
p525
sI518
S'shot'
p526
sI519
S'show'
p527
sI520
S'corner'
p528
sI521
S'behind'
p529
sI522
S'black'
p530
sI523
S'get'
p531
sI524
S'seat'
p532
sI525
S'reading'
p533
sI526
S'tub'
p534
sI527
S'restroom'
p535
sI528
S'among'
p536
sI529
S'laptops'
p537
sI530
S'stacked'
p538
sI531
S'many'
p539
sI532
S'coffee'
p540
sI533
S'sleeping'
p541
sI534
S'middle'
p542
sI535
S'bags'
p543
sI536
S'different'
p544
sI537
S'same'
p545
sI538
S'pan'
p546
sI539
S'running'
p547
sI540
S'bottle'
p548
sI541
S'outdoor'
p549
sI542
S'pile'
p550
sI543
S'railroad'
p551
sI544
S'rocky'
p552
sI545
S'facing'
p553
sI546
S'served'
p554
sI547
S'pasture'
p555
sI548
S'knife'
p556
sI549
S'road'
p557
sI550
S'arranged'
p558
sI551
S'suitcase'
p559
sI552
S'field'
p560
sI553
S'decorated'
p561
sI554
S'remote'
p562
sI555
S'children'
p563
sI556
S'enjoying'
p564
sI557
S'sitting'
p565
sI558
S'public'
p566
sI559
S'surfer'
p567
sI560
S'airport'
p568
sI561
S'narrow'
p569
sI562
S'fenced'
p570
sI563
S'buses'
p571
sI564
S'two'
p572
sI565
S'town'
p573
sI566
S'coming'
p574
sI567
S'crowded'
p575
sI568
S'coat'
p576
sI569
S'playing'
p577
sI570
S'walls'
p578
sI571
S'house'
p579
sI572
S'fish'
p580
sI573
S'scissors'
p581
sI574
S'flower'
p582
sI575
S'park'
p583
sI576
S'mountain'
p584
sI577
S'couch'
p585
sI578
S'eggs'
p586
sI579
S'refrigerator'
p587
sI580
S'perched'
p588
sI581
S'giant'
p589
sI582
S'batter'
p590
sI583
S'motorcycles'
p591
sI584
S'restaurant'
p592
sI585
S'assorted'
p593
sI586
S'talking'
p594
sI587
S'cut'
p595
sI588
S'cup'
p596
sI589
S'kites'
p597
sI590
S'big'
p598
sI591
S'back'
p599
sI592
S'mirror'
p600
sI593
S'pen'
p601
sI594
S'boys'
p602
sI595
S'planes'
p603
sI596
S'metal'
p604
sI597
S'single'
p605
sI598
S'curb'
p606
sI599
S'brushing'
p607
sI600
S'prepares'
p608
sI601
S'desert'
p609
sI602
S'overlooking'
p610
sI603
S'vehicles'
p611
sI604
S'cooked'
p612
sI605
S'dessert'
p613
sI606
S'putting'
p614
sI607
S'paddle'
p615
sI608
S'body'
p616
sI609
S'sink'
p617
sI610
S'others'
p618
sI611
S'trail'
p619
sI612
S'holds'
p620
sI613
S'lamp'
p621
sI614
S'forest'
p622
sI615
S'buildings'
p623
sI616
S'lined'
p624
sI617
S'wedding'
p625
sI618
S'meter'
p626
sI619
S'bunch'
p627
sI620
S'cutting'
p628
sI621
S'day'
p629
sI622
S'red'
p630
sI623
S'racquet'
p631
sI624
S'yard'
p632
sI625
S'skateboard'
p633
sI626
S'gear'
p634
sI627
S'have'
p635
sI628
S'kite'
p636
sI629
S'bear'
p637
sI630
S'striped'
p638
sI631
S'racket'
p639
sI632
S'taking'
p640
sI633
S'passing'
p641
sI634
S"it's"
p642
sI635
S'curtain'
p643
sI636
S'center'
p644
sI637
S'lake'
p645
sI638
S'bench'
p646
sI639
S'match'
p647
sI640
S'like'
p648
sI641
S'hair'
p649
sI642
S'about'
p650
sI643
S'boards'
p651
sI644
S'female'
p652
sI645
S'stainless'
p653
sI646
S'vegetables'
p654
sI647
S'bus'
p655
sI648
S'bun'
p656
sI649
S'dressed'
p657
sI650
S'ledge'
p658
sI651
S'feeding'
p659
sI652
S'under'
p660
sI653
S'fireplace'
p661
sI654
S'school'
p662
sI655
S'bicycle'
p663
sI656
S'street'
p664
sI657
S'blue'
p665
sI658
S'path'
p666
sI659
S'luggage'
p667
sI660
S'leaves'
p668
sI661
S'swings'
p669
sI662
S'phone'
p670
sI663
S'end'
p671
sI664
S'jumping'
p672
sI665
S'over'
p673
sI666
S'oven'
p674
sI667
S'potatoes'
p675
sI668
S'each'
p676
sI669
S'driving'
p677
sI670
S'rail'
p678
sI671
S'onto'
p679
sI672
S'toy'
p680
sI673
S'their'
p681
sI674
S'top'
p682
sI675
S'ceiling'
p683
sI676
S'serve'
p684
sI677
S'bridge'
p685
sI678
S'snow'
p686
sI679
S'rides'
p687
sI680
S'colors'
p688
sI681
S'sunglasses'
p689
sI682
S'watch'
p690
sI683
S'toothbrush'
p691
sI684
S'players'
p692
sI685
S'games'
p693
sI686
S'bathroom'
p694
sI687
S'been'
p695
sI688
S'beer'
p696
sI689
S'catch'
p697
sI690
S'containing'
p698
sI691
S'beside'
p699
sI692
S'several'
p700
sI693
S'ocean'
p701
sI694
S'mother'
p702
sI695
S'laptop'
p703
sI696
S'ice'
p704
sI697
S'christmas'
p705
sI698
S'dinner'
p706
sI699
S'bath'
p707
sI700
S'head'
p708
sI701
S'no'
p709
sI702
S'setting'
p710
sI703
S'tie'
p711
sI704
S'picture'
p712
sI705
S'row'
p713
sI706
S'stove'
p714
sI707
S'couches'
p715
sI708
S'cloudy'
p716
sI709
S'says'
p717
sI710
S'drinks'
p718
sI711
S'tarmac'
p719
sI712
S'water'
p720
sI713
S'baseball'
p721
sI714
S'dirt'
p722
sI715
S'chocolate'
p723
sI716
S'birthday'
p724
sI717
S'platform'
p725
sI718
S'underneath'
p726
sI719
S'zebra'
p727
sI720
S'place'
p728
sI721
S'swing'
p729
sI722
S'plastic'
p730
sI723
S'white'
p731
sI724
S'and'
p732
sI725
S'dining'
p733
sI726
S'surf'
p734
sI727
S'multiple'
p735
sI728
S'slope'
p736
sI729
S'wood'
p737
sI730
S'through'
p738
sI731
S'picnic'
p739
sI732
S'parking'
p740
sI733
S'outside'
p741
sI734
S'pot'
p742
sI735
S'pole'
p743
sI736
S'umpire'
p744
sI737
S'engine'
p745
sI738
S'case'
p746
sI739
S'someone'
p747
sI740
S'helmet'
p748
sI741
S'bowl'
p749
sI742
S'statue'
p750
sI743
S'fridge'
p751
sI744
S'furniture'
p752
sI745
S'towel'
p753
sI746
S'tower'
p754
sI747
S'slice'
p755
sI748
S'on'
p756
sI749
S'of'
p757
sI750
S'stand'
p758
sI751
S'or'
p759
sI752
S'there'
p760
sI753
S'cabinet'
p761
sI754
S'grass'
p762
sI755
S'toilet'
p763
sI756
S'trash'
p764
sI757
S'pillows'
p765
sI758
S'dish'
p766
sI759
S'woman'
p767
sI760
S'sun'
p768
sI761
S'sticking'
p769
sI762
S'appliances'
p770
sI763
S'donuts'
p771
sI764
S'horses'
p772
sI765
S'flat'
p773
sI766
S'flag'
p774
sI767
S'computers'
p775
sI768
S'urinals'
p776
sI769
S'pond'
p777
sI770
S'airplane'
p778
sI771
S'court'
p779
sI772
S'sandwich'
p780
sI773
S'shore'
p781
sI774
S'style'
p782
sI775
S'soccer'
p783
sI776
S'hill'
p784
sI777
S'guy'
p785
sI778
S'fancy'
p786
sI779
S'feet'
p787
sI780
S'store'
p788
sI781
S'hotel'
p789
sI782
S'surfboard'
p790
sI783
S'stall'
p791
sI784
S'outdoors'
p792
sI785
S'sandwiches'
p793
sI786
S'stands'
p794
sI787
S'windows'
p795
sI788
S'lying'
p796
sI789
S'his'
p797
sI790
S'hit'
p798
sI791
S'him'
p799
sI792
S'are'
p800
sI793
S'arm'
p801
sI794
S'various'
p802
sI795
S'flies'
p803
sI796
S'brick'
p804
sI797
S'plants'
p805
sI798
S'shirt'
p806
sI799
S'cement'
p807
sI800
S'moving'
p808
sI801
S'edge'
p809
sI802
S'hotdog'
p810
sI803
S'tables'
p811
sI804
S'shaped'
p812
sI805
S'controllers'
p813
sI806
S'jumps'
p814
sI807
S'surfers'
p815
sI808
S'lone'
p816
sI809
S'long'
p817
sI810
S'mountains'
p818
sI811
S'fries'
p819
sI812
S'nice'
p820
sI813
S'spoon'
p821
sI814
S'drinking'
p822
sI815
S'traveling'
p823
sI816
S'waiting'
p824
sI817
S'apple'
p825
sI818
S'motor'
p826
sI819
S'from'
p827
sI820
S'few'
p828
sI821
S'women'
p829
sI822
S'something'
p830
sI823
S'onions'
p831
sI824
S'sit'
p832
sI825
S'light'
p833
sI826
S'looks'
p834
sI827
S'orange'
p835
sI828
S'covered'
p836
sI829
S'oranges'
p837
sI830
S'tray'
p838
sI831
S'out'
p839
sI832
S'river'
p840
sI833
S'umbrellas'
p841
sI834
S'shelf'
p842
sI835
S'which'
p843
sI836
S'who'
p844
sI837
S'chicken'
p845
sI838
S'watching'
p846
sI839
S'view'
p847
sI840
S'wall'
p848
sI841
S'walk'
p849
sI842
S'table'
p850
sI843
S'painted'
p851
sI844
S'wild'
p852
sI845
S'vintage'
p853
sI846
S'cross'
p854
sI847
S'tomatoes'
p855
sI848
S'other'
p856
sI849
S'ski'
p857
sI850
S'doughnut'
p858
sI851
S'pasta'
p859
sI852
S'brush'
p860
sI853
S'van'
p861
sI854
S'made'
p862
sI855
S'below'
p863
sI856
S'catching'
p864
sI857
S'cake'
p865
sI858
S'book'
p866
sI859
S'branch'
p867
ssS'word2idx'
p868
(dp869
g736
I728
sg214
I206
sg332
I324
sg829
I821
sg498
I490
sg12
I4
sg13
I5
sg14
I6
sg437
I429
sg64
I56
sg384
I376
sg65
I57
sg563
I555
sg713
I705
sg659
I651
sg116
I108
sg570
I562
sg165
I157
sg117
I109
sg66
I58
sg215
I207
sg660
I652
sg385
I377
sg564
I556
sg752
I744
sg269
I261
sg767
I759
sg166
I158
sg565
I557
sg333
I325
sg613
I605
sg216
I208
sg386
I378
sg821
I813
sg217
I209
sg270
I262
sg822
I814
sg661
I653
sg16
I8
sg715
I707
sg17
I9
sg118
I110
sg688
I680
sg716
I708
sg119
I111
sg120
I112
sg63
I55
sg67
I59
sg68
I60
sg121
I113
sg271
I263
sg139
I131
sg439
I431
sg663
I655
sg334
I326
sg156
I148
sg218
I210
sg15
I7
sg69
I61
sg122
I114
sg766
I758
sg664
I656
sg168
I160
sg823
I815
sg500
I492
sg718
I710
sg614
I606
sg388
I380
sg794
I786
sg123
I115
sg768
I760
sg18
I10
sg475
I467
sg615
I607
sg272
I264
sg390
I382
sg442
I434
sg824
I816
sg391
I383
sg219
I211
sg307
I299
sg169
I161
sg501
I493
sg616
I608
sg124
I116
sg220
I212
sg170
I162
sg443
I435
sg392
I384
sg502
I494
sg19
I11
sg720
I712
sg335
I327
sg721
I713
sg617
I609
sg336
I328
sg70
I62
sg666
I658
sg71
I63
sg444
I436
sg72
I64
sg20
I12
sg337
I329
sg667
I659
sg221
I213
sg668
I660
sg568
I560
sg569
I561
sg273
I265
sg769
I761
sg400
I392
sg825
I817
sg338
I330
sg445
I437
sg555
I547
sg394
I386
sg399
I391
sg446
I438
sg753
I745
sg274
I266
sg770
I762
sg740
I732
sg275
I267
sg630
I622
sg171
I163
sg669
I661
sg827
I819
sg339
I331
sg74
I66
sg771
I763
sg572
I564
sg157
I149
sg828
I820
sg395
I387
sg396
I388
sg340
I332
sg772
I764
sg773
I765
sg125
I117
sg650
I642
sg723
I715
sg21
I13
sg774
I766
sg163
I155
sg447
I439
sg174
I166
sg342
I334
sg651
I643
sg505
I497
sg176
I168
sg448
I440
sg397
I389
sg542
I534
sg177
I169
sg276
I268
sg398
I390
sg222
I214
sg449
I441
sg277
I269
sg278
I270
sg389
I381
sg279
I271
sg401
I393
sg126
I118
sg830
I822
sg127
I119
sg280
I272
sg175
I167
sg178
I170
sg450
I442
sg281
I273
sg776
I768
sg343
I335
sg777
I769
sg778
I770
sg815
I807
sg128
I120
sg507
I499
sg129
I121
sg671
I663
sg832
I824
sg831
I823
sg531
I523
sg22
I14
sg622
I614
sg180
I172
sg75
I67
sg223
I215
sg224
I216
sg225
I217
sg130
I122
sg780
I772
sg574
I566
sg748
I740
sg467
I459
sg226
I218
sg698
I690
sg131
I123
sg637
I629
sg282
I274
sg181
I173
sg438
I430
sg227
I219
sg23
I15
sg510
I502
sg344
I336
sg76
I68
sg239
I231
sg575
I567
sg283
I275
sg182
I174
sg781
I773
sg228
I220
sg853
I845
sg511
I503
sg512
I504
sg624
I616
sg78
I70
sg577
I569
sg24
I16
sg513
I505
sg284
I276
sg514
I506
sg229
I221
sg673
I665
sg285
I277
sg626
I618
sg133
I125
sg402
I394
sg183
I175
sg674
I666
sg134
I126
sg135
I127
sg136
I128
sg452
I444
sg782
I774
sg419
I411
sg516
I508
sg25
I17
sg621
I613
sg725
I717
sg287
I279
sg835
I827
sg836
I828
sg783
I775
sg137
I129
sg104
I96
sg230
I222
sg747
I739
sg345
I337
sg662
I654
sg837
I829
sg140
I132
sg726
I718
sg184
I176
sg578
I570
sg232
I224
sg233
I225
sg288
I280
sg289
I281
sg185
I177
sg26
I18
sg234
I226
sg383
I375
sg453
I445
sg675
I667
sg235
I227
sg347
I339
sg855
I847
sg517
I509
sg406
I398
sg838
I830
sg103
I95
sg186
I178
sg79
I71
sg518
I510
sg187
I179
sg579
I571
sg580
I572
sg623
I615
sg27
I19
sg676
I668
sg188
I180
sg727
I719
sg236
I228
sg290
I282
sg469
I461
sg839
I831
sg520
I512
sg291
I283
sg582
I574
sg80
I72
sg677
I669
sg292
I284
sg331
I323
sg629
I621
sg293
I285
sg167
I159
sg784
I776
sg138
I130
sg294
I286
sg407
I399
sg722
I714
sg295
I287
sg522
I514
sg296
I288
sg349
I341
sg807
I799
sg785
I777
sg341
I333
sg632
I624
sg28
I20
sg775
I767
sg633
I625
sg499
I491
sg672
I664
sg728
I720
sg729
I721
sg847
I839
sg679
I671
sg521
I513
sg491
I483
sg456
I448
sg459
I451
sg132
I124
sg350
I342
sg231
I223
sg786
I778
sg81
I73
sg787
I779
sg805
I797
sg238
I230
sg581
I573
sg82
I74
sg841
I833
sg298
I290
sg83
I75
sg351
I343
sg680
I672
sg458
I450
sg141
I133
sg408
I400
sg509
I501
sg682
I674
sg237
I229
sg730
I722
sg681
I673
sg308
I300
sg84
I76
sg843
I835
sg731
I723
sg29
I21
sg240
I232
sg788
I780
sg790
I782
sg523
I515
sg323
I315
sg189
I181
sg842
I834
sg566
I558
sg789
I781
sg583
I575
sg779
I771
sg300
I292
sg644
I636
sg190
I182
sg387
I379
sg301
I293
sg363
I355
sg30
I22
sg353
I345
sg241
I233
sg352
I344
sg31
I23
sg791
I783
sg302
I294
sg303
I295
sg354
I346
sg800
I792
sg732
I724
sg685
I677
sg242
I234
sg425
I417
sg243
I235
sg683
I675
sg594
I586
sg792
I784
sg142
I134
sg635
I627
sg463
I455
sg304
I296
sg634
I626
sg584
I576
sg191
I183
sg32
I24
sg299
I291
sg255
I247
sg485
I477
sg355
I347
sg305
I297
sg809
I801
sg85
I77
sg33
I25
sg77
I69
sg539
I531
sg687
I679
sg734
I726
sg665
I657
sg143
I135
sg356
I348
sg735
I727
sg34
I26
sg524
I516
sg684
I676
sg586
I578
sg35
I27
sg36
I28
sg357
I349
sg179
I171
sg587
I579
sg412
I404
sg712
I704
sg795
I787
sg358
I350
sg604
I596
sg464
I456
sg264
I256
sg359
I351
sg306
I298
sg810
I802
sg192
I184
sg796
I788
sg525
I517
sg86
I78
sg526
I518
sg636
I628
sg527
I519
sg714
I706
sg690
I682
sg87
I79
sg193
I185
sg414
I406
sg194
I186
sg588
I580
sg528
I520
sg845
I837
sg468
I460
sg144
I136
sg719
I711
sg589
I581
sg37
I29
sg405
I397
sg741
I733
sg88
I80
sg530
I522
sg360
I352
sg195
I187
sg846
I838
sg38
I30
sg465
I457
sg39
I31
sg797
I789
sg689
I681
sg466
I458
sg89
I81
sg760
I752
sg145
I137
sg409
I401
sg361
I353
sg590
I582
sg146
I138
sg625
I617
sg362
I354
sg638
I630
sg799
I791
sg415
I407
sg470
I462
sg403
I395
sg471
I463
sg591
I583
sg416
I408
sg462
I454
sg440
I432
sg472
I464
sg417
I409
sg738
I730
sg840
I832
sg90
I82
sg834
I826
sg147
I139
sg739
I731
sg364
I356
sg819
I811
sg393
I385
sg503
I495
sg532
I524
sg148
I140
sg381
I373
sg410
I402
sg196
I188
sg639
I631
sg365
I357
sg801
I793
sg508
I500
sg197
I189
sg40
I32
sg366
I358
sg244
I236
sg863
I855
sg286
I278
sg529
I521
sg802
I794
sg309
I301
sg245
I237
sg533
I525
sg91
I83
sg59
I51
sg811
I803
sg451
I443
sg92
I84
sg603
I595
sg691
I683
sg595
I587
sg540
I532
sg709
I701
sg515
I507
sg534
I526
sg567
I559
sg620
I612
sg246
I238
sg367
I359
sg10
I2
sg762
I754
sg247
I239
sg592
I584
sg41
I33
sg640
I632
sg198
I190
sg473
I465
sg535
I527
sg692
I684
sg693
I685
sg641
I633
sg310
I302
sg536
I528
sg803
I795
sg763
I755
sg848
I840
sg742
I734
sg618
I610
sg849
I841
sg743
I735
sg149
I141
sg850
I842
sg646
I638
sg42
I34
sg93
I85
sg694
I686
sg833
I825
sg94
I86
sg642
I634
sg474
I466
sg695
I687
sg150
I142
sg696
I688
sg643
I635
sg804
I796
sg311
I303
sg368
I360
sg597
I589
sg745
I737
sg151
I143
sg411
I403
sg504
I496
sg152
I144
sg8
I0
sg328
I320
sg537
I529
sg420
I412
sg704
I696
sg43
I35
sg697
I689
sg312
I304
sg746
I738
sg737
I729
sg538
I530
sg370
I362
sg658
I650
sg857
I849
sg199
I191
sg605
I597
sg249
I241
sg313
I305
sg441
I433
sg647
I639
sg153
I145
sg852
I844
sg200
I192
sg476
I468
sg201
I193
sg477
I469
sg421
I413
sg541
I533
sg44
I36
sg371
I363
sg422
I414
sg478
I470
sg372
I364
sg202
I194
sg479
I471
sg543
I535
sg544
I536
sg480
I472
sg806
I798
sg45
I37
sg749
I741
sg854
I846
sg545
I537
sg699
I691
sg481
I473
sg250
I242
sg700
I692
sg155
I147
sg546
I538
sg203
I195
sg348
I340
sg678
I670
sg251
I243
sg252
I244
sg547
I539
sg314
I306
sg808
I800
sg750
I742
sg457
I449
sg204
I196
sg482
I474
sg205
I197
sg423
I415
sg373
I365
sg424
I416
sg374
I366
sg376
I368
sg701
I693
sg154
I146
sg628
I620
sg548
I540
sg95
I87
sg208
I200
sg253
I245
sg483
I475
sg549
I541
sg206
I198
sg484
I476
sg96
I88
sg254
I246
sg703
I695
sg404
I396
sg724
I716
sg686
I678
sg346
I338
sg207
I199
sg585
I577
sg858
I850
sg733
I725
sg426
I418
sg315
I307
sg596
I588
sg571
I563
sg73
I65
sg645
I637
sg316
I308
sg47
I39
sg856
I848
sg550
I542
sg256
I248
sg369
I361
sg248
I240
sg48
I40
sg97
I89
sg98
I90
sg866
I858
sg99
I91
sg598
I590
sg46
I38
sg751
I743
sg100
I92
sg257
I249
sg101
I93
sg486
I478
sg209
I201
sg317
I309
sg551
I543
sg49
I41
sg318
I310
sg552
I544
sg851
I843
sg375
I367
sg648
I640
sg812
I804
sg210
I202
sg377
I369
sg487
I479
sg553
I545
sg50
I42
sg258
I250
sg627
I619
sg554
I546
sg754
I746
sg506
I498
sg51
I43
sg52
I44
sg826
I818
sg53
I45
sg54
I46
sg378
I370
sg599
I591
sg670
I662
sg649
I641
sg600
I592
sg428
I420
sg702
I694
sg813
I805
sg755
I747
sg55
I47
sg56
I48
sg259
I251
sg488
I480
sg601
I593
sg211
I203
sg489
I481
sg705
I697
sg556
I548
sg9
I1
sg717
I709
sg844
I836
sg379
I371
sg319
I311
sg429
I421
sg814
I806
sg260
I252
sg380
I372
sg859
I851
sg793
I785
sg261
I253
sg320
I312
sg756
I748
sg102
I94
sg57
I49
sg213
I205
sg757
I749
sg454
I446
sg706
I698
sg430
I422
sg758
I750
sg759
I751
sg557
I549
sg212
I204
sg158
I150
sg707
I699
sg490
I482
sg860
I852
sg652
I644
sg172
I164
sg631
I623
sg861
I853
sg105
I97
sg321
I313
sg653
I645
sg654
I646
sg297
I289
sg816
I808
sg817
I809
sg322
I314
sg262
I254
sg159
I151
sg492
I484
sg818
I810
sg708
I700
sg263
I255
sg655
I647
sg160
I152
sg324
I316
sg761
I753
sg602
I594
sg413
I405
sg656
I648
sg867
I859
sg161
I153
sg325
I317
sg106
I98
sg431
I423
sg432
I424
sg460
I452
sg862
I854
sg558
I550
sg58
I50
sg493
I485
sg162
I154
sg418
I410
sg433
I425
sg864
I856
sg107
I99
sg559
I551
sg865
I857
sg434
I426
sg435
I427
sg11
I3
sg60
I52
sg382
I374
sg744
I736
sg108
I100
sg109
I101
sg110
I102
sg606
I598
sg111
I103
sg112
I104
sg494
I486
sg519
I511
sg113
I105
sg798
I790
sg496
I488
sg326
I318
sg61
I53
sg657
I649
sg593
I585
sg265
I257
sg455
I447
sg560
I552
sg710
I702
sg266
I258
sg711
I703
sg764
I756
sg820
I812
sg607
I599
sg327
I319
sg427
I419
sg765
I757
sg497
I489
sg461
I453
sg573
I565
sg436
I428
sg608
I600
sg561
I553
sg495
I487
sg609
I601
sg329
I321
sg330
I322
sg576
I568
sg562
I554
sg610
I602
sg619
I611
sg114
I106
sg611
I603
sg267
I259
sg268
I260
sg612
I604
sg173
I165
sg62
I54
sg164
I156
sg115
I107
ssS'idx'
p870
I860
sb.